Certificate:
    Data:
        Version: 3 (0x2)
        Serial Number: 2 (0x2)
    Signature Algorithm: sha1WithRSAEncryption
        Issuer: DC=org, DC=simple, O=Simple Inc, OU=Simple Signing CA, CN=Simple Signing CA
        Validity
            Not Before: May  8 03:05:00 2018 GMT
            Not After : May  7 03:05:00 2020 GMT
        Subject: DC=org, DC=simple, O=Simple Inc, CN=www.simple.org
        Subject Public Key Info:
            Public Key Algorithm: rsaEncryption
                Public-Key: (2048 bit)
                Modulus:
                    00:b6:28:35:c6:d9:d9:e0:3f:dc:b2:77:b8:d7:11:
                    5e:01:c0:4b:81:7b:a4:ca:b0:b2:1d:64:95:9c:bd:
                    8d:b7:71:b1:5e:07:36:9c:aa:32:74:b8:1e:f8:9e:
                    8a:8c:9b:f6:89:da:2f:37:91:61:8f:0f:26:2a:35:
                    98:89:0e:4f:20:ad:13:46:52:69:5d:d6:95:de:57:
                    52:7d:7b:dc:88:59:c8:a9:7e:c9:af:e6:1d:54:ef:
                    a6:c1:c7:fa:cf:bc:33:ba:0f:6a:08:c6:ee:2c:6a:
                    02:ac:3f:93:1a:8b:de:33:c2:79:1e:6a:2c:6c:eb:
                    9d:85:96:d9:23:3a:50:db:1b:9c:dd:90:a3:59:71:
                    88:b1:92:69:ed:0b:ef:f2:ff:14:c8:9d:10:cd:44:
                    c3:72:35:43:88:e5:6e:9a:68:6c:8c:23:e4:c6:3d:
                    70:e9:37:61:44:01:46:45:96:51:2a:1a:c8:3f:15:
                    d4:fe:e3:2a:cd:26:7b:38:1f:aa:8e:cd:c6:ab:76:
                    99:87:99:43:aa:3b:7c:ce:03:29:ed:b8:ff:e5:25:
                    08:ea:b3:bf:f3:57:b8:00:52:e0:00:f7:ac:ce:19:
                    3b:ab:85:5d:05:5d:cc:a4:fd:81:35:2c:38:ac:42:
                    5b:77:b8:fa:2f:41:d2:2e:4b:8d:93:0b:1b:53:ef:
                    d7:19
                Exponent: 65537 (0x10001)
        X509v3 extensions:
            X509v3 Key Usage: critical
                Digital Signature, Key Encipherment
            X509v3 Basic Constraints: 
                CA:FALSE
            X509v3 Extended Key Usage: 
                TLS Web Server Authentication, TLS Web Client Authentication
            X509v3 Subject Key Identifier: 
                F1:2D:DB:D8:A3:06:3A:1B:40:A4:6B:4F:26:07:A1:31:A5:91:E7:E4
            X509v3 Authority Key Identifier: 
                keyid:16:EE:B9:DB:48:F5:97:29:C1:8F:FE:AD:98:15:FA:75:9A:A0:21:1D

            X509v3 Subject Alternative Name: 
                DNS:www.simple.org
    Signature Algorithm: sha1WithRSAEncryption
         25:6a:9a:18:cc:92:d9:d0:f0:6c:45:f2:b3:9a:33:58:b2:3c:
         53:e6:b6:92:4a:7f:39:bf:3d:80:3b:2c:9f:eb:04:23:ee:bc:
         d9:ca:b8:cc:0e:ca:f4:1c:b3:f9:83:ef:86:30:57:77:d1:d6:
         a7:dd:4f:86:5f:5b:54:a6:fb:6a:f1:5a:c7:47:8f:9d:4f:e2:
         53:9a:8e:4a:6e:d5:65:ed:49:06:61:0d:69:d2:ae:d9:f1:12:
         8c:de:5a:c5:fb:73:00:df:4e:5d:57:8b:5a:07:7f:ba:f0:74:
         a6:fb:eb:7a:c1:03:96:1f:9d:c5:1d:b6:d7:39:70:5b:61:6c:
         cf:e2:76:05:31:67:49:d1:cc:ad:d0:20:01:3c:2d:e1:bc:01:
         f8:cf:28:0c:ba:b3:d6:86:1d:53:92:c5:f8:47:fb:1b:93:79:
         ad:cd:d1:29:50:20:d7:d4:96:bd:c5:45:48:30:6a:2b:4a:79:
         79:a1:80:a3:42:86:22:e6:b9:cd:9d:db:f3:08:8b:73:61:92:
         0c:d9:4a:f1:8f:f0:61:f6:7a:1f:0e:e4:6f:77:da:92:3c:84:
         90:35:b0:c6:2b:1f:3d:34:9d:3a:08:4d:e2:14:40:f4:cc:52:
         28:f7:de:3b:4d:20:a6:fb:d6:9c:02:aa:74:3f:43:9d:c7:13:
         55:2c:a6:26
-----BEGIN CERTIFICATE-----
MIID6TCCAtGgAwIBAgIBAjANBgkqhkiG9w0BAQUFADB6MRMwEQYKCZImiZPyLGQB
GRYDb3JnMRYwFAYKCZImiZPyLGQBGRYGc2ltcGxlMRMwEQYDVQQKDApTaW1wbGUg
SW5jMRowGAYDVQQLDBFTaW1wbGUgU2lnbmluZyBDQTEaMBgGA1UEAwwRU2ltcGxl
IFNpZ25pbmcgQ0EwHhcNMTgwNTA4MDMwNTAwWhcNMjAwNTA3MDMwNTAwWjBbMRMw
EQYKCZImiZPyLGQBGRYDb3JnMRYwFAYKCZImiZPyLGQBGRYGc2ltcGxlMRMwEQYD
VQQKDApTaW1wbGUgSW5jMRcwFQYDVQQDDA53d3cuc2ltcGxlLm9yZzCCASIwDQYJ
KoZIhvcNAQEBBQADggEPADCCAQoCggEBALYoNcbZ2eA/3LJ3uNcRXgHAS4F7pMqw
sh1klZy9jbdxsV4HNpyqMnS4Hvieioyb9onaLzeRYY8PJio1mIkOTyCtE0ZSaV3W
ld5XUn173IhZyKl+ya/mHVTvpsHH+s+8M7oPagjG7ixqAqw/kxqL3jPCeR5qLGzr
nYWW2SM6UNsbnN2Qo1lxiLGSae0L7/L/FMidEM1Ew3I1Q4jlbppobIwj5MY9cOk3
YUQBRkWWUSoayD8V1P7jKs0mezgfqo7Nxqt2mYeZQ6o7fM4DKe24/+UlCOqzv/NX
uABS4AD3rM4ZO6uFXQVdzKT9gTUsOKxCW3e4+i9B0i5LjZMLG1Pv1xkCAwEAAaOB
mDCBlTAOBgNVHQ8BAf8EBAMCBaAwCQYDVR0TBAIwADAdBgNVHSUEFjAUBggrBgEF
BQcDAQYIKwYBBQUHAwIwHQYDVR0OBBYEFPEt29ijBjobQKRrTyYHoTGlkefkMB8G
A1UdIwQYMBaAFBbuudtI9ZcpwY/+rZgV+nWaoCEdMBkGA1UdEQQSMBCCDnd3dy5z
aW1wbGUub3JnMA0GCSqGSIb3DQEBBQUAA4IBAQAlapoYzJLZ0PBsRfKzmjNYsjxT
5raSSn85vz2AOyyf6wQj7rzZyrjMDsr0HLP5g++GMFd30dan3U+GX1tUpvtq8VrH
R4+dT+JTmo5KbtVl7UkGYQ1p0q7Z8RKM3lrF+3MA305dV4taB3+68HSm++t6wQOW
H53FHbbXOXBbYWzP4nYFMWdJ0cyt0CABPC3hvAH4zygMurPWhh1TksX4R/sbk3mt
zdEpUCDX1Ja9xUVIMGorSnl5oYCjQoYi5rnNndvzCItzYZIM2Urxj/Bh9nofDuRv
d9qSPISQNbDGKx89NJ06CE3iFED0zFIo9947TSCm+9acAqp0P0OdxxNVLKYm
-----END CERTIFICATE-----
