-----BEGIN ENCRYPTED PRIVATE KEY-----
MIIFDjBABgkqhkiG9w0BBQ0wMzAbBgkqhkiG9w0BBQwwDgQIUi5kWuTedJwCAggA
MBQGCCqGSIb3DQMHBAhWWKg7zNLJDASCBMjB/REHCsVCrsByLM5zUMe4DH4jN5gm
P1el/QA8w1ueXdh1e/Otus3KLNTT1Y+zQ/9jb/dSSt8u8gZgAOizd3ckH9I647bQ
d+Fc5Axy8Oiuphn+riHxLBYHvPEt7v8y3tyq8lEiYlmw0frfr6kNuQ4D4XJudzkO
/rmG4wcBlYNWyzmZyuT5dQL4fQ3nXkEeFciH99BlhTvd7yxn2Q3soBr+A8Gd/gt9
b4wBuGYvs3nv62z4Hle0XsW4Dt4Xh7+uvTTRaqSAo+wcA38upjgaMH9gx5ex5rbc
hi1zrApDK5w86n0/hhUPch3x4XkgrNjCdbx87VgI7G3DfcwYRf0OyVcbKCDdZ7Jp
6LDnY5ZKTYp8Fqdxi3H5Ed+Ys+bPkIEylzNofYqKqo8aHKeNt7IakuibsdaN8gR8
h2f/U6Tem+xTwsG7tvnPbmiZCBPzGgLeNDP6E1Ub59Cpz2G/iMoCS8aXLmUFJENC
RbFn0wVw7ubMyrXs9zhY4PAzOXtt/5kGuGY+NhPTXxXFQerMFs47CRZA8n8NOWyk
L0gW8MBS8fYNXroizuPYiMucaXRwgCN4XpAQH/e7Muve4E6JlPZJSsgeudtuSrwQ
iCLybDLeOv+zu1rUkfQ0h/UFVi4GoNJDXbQBmt2xqMAIGi3krvcIvwnPUxKFuYFt
YkdAiwZ4yKYN2qd6ltHUSzyEZmtNLnx3xWIvK0BxdJjk7D11N63bcGF82dOh6xtN
IJ+Tzl8t72r6A9Jy0qXGz+I3z7DePNLlgP3V+ql4ZWVcljzKWrOpGkpkiru35z8u
PeMQuXcuu0u+yQdw8iF7TtpueET5vQhlXMzTgWwi+gGBwF+zCtTkEPagXVoLQvsZ
YKeXkPfDuwebtNT5fBSHg3Yjw1sfeNbsHC6ZEaFMd+ajCpeuJnqDM/GQ3y3TshDE
UXnCif0swF8X3VCj3SbSMO+LN2d9fMbes/FWxkUGkXfIxZB54xbXu+ls5iUYd1/x
b8Sjld+7Sr42jNF9d2EwKpkMTAMGBMazq8uCYHVI7WEQhS1r9Na4a4WBsUCiWDIl
7NdDKBP0EFqcq/B3b68VhB2/09AKgZUxiZcP1R1ixcYa/kvpQfXio8awSzvNHKOh
yY+ns0dRQX0jfecypQE/FZHiP/aUCEtLTztGjsM136/QlMlLn3lg7f4gFoIAJ6Lf
eaawG2Ia29so/mv/NX6lAtVtVoEG4838KaA148j/5ZfMFURL9rJ+fTME4jB5hK7f
4GUjHM4708o9kQMWLoB+3829dkwlxH4afC5/oLR4hVlofNT4mEhXu9CAgWXmqz9j
GaXh+mdljUmroFKcd1/NDZyG7HxH5PGvWd2fBxi+vht+O8zcqBX5pbVIcKZiSt/Z
iGSKt12RcKygu3ZmiQpRcUCuJgJ7wx4jRffzAftkvqa9eFuDBBS32ACjMk5lLudn
DhAKgwqUoAY1erBULs3EeuxP7+ntXk4/8ND1NcD+/0+g+SkAGkiQt0gAFUqIvW+C
2X1wBEHwkudWmRJyrFzzuQFPJFWL/PSW0bVLFTWrQ3bXF5fBDhkU0dgItPK43dBC
rCweaZcPizkRNcKDm9Q8U4iQos1FDX2TnWnMCB8x7NfjJPQj3SopfTWdDdRdc8or
D3o=
-----END ENCRYPTED PRIVATE KEY-----
Certificate:
    Data:
        Version: 3 (0x2)
        Serial Number: 1 (0x1)
    Signature Algorithm: sha1WithRSAEncryption
        Issuer: DC=org, DC=simple, O=Simple Inc, OU=Simple Signing CA, CN=Simple Signing CA
        Validity
            Not Before: May  8 03:03:22 2018 GMT
            Not After : May  7 03:03:22 2020 GMT
        Subject: DC=org, DC=simple, O=Simple Inc, CN=Fred Flintstone
        Subject Public Key Info:
            Public Key Algorithm: rsaEncryption
                Public-Key: (2048 bit)
                Modulus:
                    00:a2:e8:71:68:ad:10:7e:4d:84:df:c4:7e:9d:3a:
                    c4:de:3b:bb:da:5f:66:3d:da:0e:1d:47:9d:9e:01:
                    05:6c:1a:57:a0:8e:18:c6:1e:3f:01:90:68:f3:8c:
                    e8:97:03:e0:47:d3:7a:77:ca:b5:49:30:c4:3c:ca:
                    b3:35:42:b0:73:2c:b4:0c:bd:22:4d:54:13:06:a1:
                    87:c3:f9:48:40:6d:46:fe:d1:e9:36:5d:99:72:19:
                    e2:1f:41:59:3a:de:31:07:63:b7:df:ab:9e:d5:3d:
                    94:1c:f1:58:e6:1a:22:1a:a3:29:cc:2f:10:5c:8d:
                    04:83:69:bb:de:65:4a:89:f9:1b:14:42:d5:34:e4:
                    2e:4c:3e:c2:77:27:ab:3d:ce:79:ab:4d:0b:04:95:
                    39:5b:05:79:0f:e2:df:a0:06:5b:a7:d6:a8:d8:63:
                    a6:e7:ec:77:15:46:c1:01:5b:0a:18:17:81:20:e4:
                    1c:31:9d:48:4f:e3:ba:08:06:6f:d1:32:64:f4:00:
                    42:81:12:4a:6a:ac:98:08:0c:ae:84:f3:e4:a8:b3:
                    7f:ff:d7:4f:ca:68:fe:af:e1:7b:0e:38:9c:bc:7f:
                    82:15:ea:53:30:cf:ab:f1:07:02:96:b4:3a:40:1b:
                    4c:23:f7:d0:96:a9:30:2b:ce:7c:9d:01:08:20:9f:
                    9a:3d
                Exponent: 65537 (0x10001)
        X509v3 extensions:
            X509v3 Key Usage: critical
                Digital Signature, Key Encipherment
            X509v3 Basic Constraints: 
                CA:FALSE
            X509v3 Extended Key Usage: 
                E-mail Protection, TLS Web Client Authentication
            X509v3 Subject Key Identifier: 
                9E:75:1D:75:FF:63:B5:98:1A:B0:E5:BB:75:6C:5B:41:C8:F8:0B:09
            X509v3 Authority Key Identifier: 
                keyid:16:EE:B9:DB:48:F5:97:29:C1:8F:FE:AD:98:15:FA:75:9A:A0:21:1D

            X509v3 Subject Alternative Name: 
                email:fred@simple.org
    Signature Algorithm: sha1WithRSAEncryption
         03:b4:f8:b6:2c:56:c3:25:fa:2c:50:f2:a0:2b:b1:76:39:88:
         2a:86:c4:c3:d7:e8:04:a2:8f:c9:c8:d6:e2:bb:df:b5:1c:15:
         e4:5d:99:4d:fb:5d:f0:f6:07:3e:ad:dd:cc:66:8e:04:a1:5d:
         f7:b5:7d:0f:9e:d2:da:79:2c:06:7f:59:b1:c1:2f:1e:79:db:
         3a:fa:d0:d7:c2:2e:63:ae:0f:a9:b1:1f:f1:dc:f0:c0:98:4c:
         9d:08:22:be:4f:a2:a8:11:c2:5b:c3:53:31:be:6a:8e:19:63:
         f9:22:2b:ec:67:54:db:35:a8:c8:ff:6e:fb:e1:c6:b2:0e:c1:
         bf:b7:e0:88:ab:86:e1:ac:22:a0:2c:9a:be:d5:69:5e:d6:9a:
         4c:7f:59:d3:99:7f:73:df:92:bd:2a:f6:55:1c:f0:2e:ba:00:
         43:6a:bc:31:60:b6:17:f7:40:2a:55:de:88:1a:31:7f:ab:c5:
         69:6c:c7:fc:eb:11:d4:f6:ed:81:09:03:96:1f:f0:11:e7:92:
         a5:7d:fa:28:4e:78:ef:da:33:9b:b6:15:56:08:ca:6c:c4:09:
         ba:8c:ac:44:03:79:ca:ab:2f:3b:1e:32:eb:16:09:05:c6:46:
         e5:d3:a4:99:61:ea:0d:e5:81:c1:30:0c:a1:71:d8:15:6a:e3:
         09:32:b7:c2
-----BEGIN CERTIFICATE-----
MIID6zCCAtOgAwIBAgIBATANBgkqhkiG9w0BAQUFADB6MRMwEQYKCZImiZPyLGQB
GRYDb3JnMRYwFAYKCZImiZPyLGQBGRYGc2ltcGxlMRMwEQYDVQQKDApTaW1wbGUg
SW5jMRowGAYDVQQLDBFTaW1wbGUgU2lnbmluZyBDQTEaMBgGA1UEAwwRU2ltcGxl
IFNpZ25pbmcgQ0EwHhcNMTgwNTA4MDMwMzIyWhcNMjAwNTA3MDMwMzIyWjBcMRMw
EQYKCZImiZPyLGQBGRYDb3JnMRYwFAYKCZImiZPyLGQBGRYGc2ltcGxlMRMwEQYD
VQQKDApTaW1wbGUgSW5jMRgwFgYDVQQDDA9GcmVkIEZsaW50c3RvbmUwggEiMA0G
CSqGSIb3DQEBAQUAA4IBDwAwggEKAoIBAQCi6HForRB+TYTfxH6dOsTeO7vaX2Y9
2g4dR52eAQVsGlegjhjGHj8BkGjzjOiXA+BH03p3yrVJMMQ8yrM1QrBzLLQMvSJN
VBMGoYfD+UhAbUb+0ek2XZlyGeIfQVk63jEHY7ffq57VPZQc8VjmGiIaoynMLxBc
jQSDabveZUqJ+RsUQtU05C5MPsJ3J6s9znmrTQsElTlbBXkP4t+gBlun1qjYY6bn
7HcVRsEBWwoYF4Eg5BwxnUhP47oIBm/RMmT0AEKBEkpqrJgIDK6E8+Sos3//10/K
aP6v4XsOOJy8f4IV6lMwz6vxBwKWtDpAG0wj99CWqTArznydAQggn5o9AgMBAAGj
gZkwgZYwDgYDVR0PAQH/BAQDAgWgMAkGA1UdEwQCMAAwHQYDVR0lBBYwFAYIKwYB
BQUHAwQGCCsGAQUFBwMCMB0GA1UdDgQWBBSedR11/2O1mBqw5bt1bFtByPgLCTAf
BgNVHSMEGDAWgBQW7rnbSPWXKcGP/q2YFfp1mqAhHTAaBgNVHREEEzARgQ9mcmVk
QHNpbXBsZS5vcmcwDQYJKoZIhvcNAQEFBQADggEBAAO0+LYsVsMl+ixQ8qArsXY5
iCqGxMPX6ASij8nI1uK737UcFeRdmU37XfD2Bz6t3cxmjgShXfe1fQ+e0tp5LAZ/
WbHBLx552zr60NfCLmOuD6mxH/Hc8MCYTJ0IIr5PoqgRwlvDUzG+ao4ZY/kiK+xn
VNs1qMj/bvvhxrIOwb+34IirhuGsIqAsmr7VaV7Wmkx/WdOZf3Pfkr0q9lUc8C66
AENqvDFgthf3QCpV3ogaMX+rxWlsx/zrEdT27YEJA5Yf8BHnkqV9+ihOeO/aM5u2
FVYIymzECbqMrEQDecqrLzseMusWCQXGRuXTpJlh6g3lgcEwDKFx2BVq4wkyt8I=
-----END CERTIFICATE-----
