Certificate:
    Data:
        Version: 3 (0x2)
        Serial Number: 2 (0x2)
    Signature Algorithm: sha1WithRSAEncryption
        Issuer: DC=org, DC=simple, O=Simple Inc, OU=Simple Root CA, CN=Simple Root CA
        Validity
            Not Before: May  8 02:59:00 2018 GMT
            Not After : May  7 02:59:00 2028 GMT
        Subject: DC=org, DC=simple, O=Simple Inc, OU=Simple Signing CA, CN=Simple Signing CA
        Subject Public Key Info:
            Public Key Algorithm: rsaEncryption
                Public-Key: (2048 bit)
                Modulus:
                    00:ce:a8:55:79:23:44:77:83:9d:7c:8b:54:ce:1f:
                    eb:fc:25:73:a1:91:8b:0e:3a:f3:7b:35:b0:b5:89:
                    da:c3:21:c6:89:13:79:6c:6a:cd:90:50:d6:22:c3:
                    11:2e:ee:d1:5e:f7:c7:f2:ef:7e:20:d2:2a:ed:f1:
                    f2:86:38:03:e9:92:d0:1c:3c:6c:da:5f:c3:d8:4d:
                    42:23:b9:cf:f3:12:77:07:ed:3f:48:91:67:0c:35:
                    ff:c4:6b:f0:22:6e:be:8a:f7:3f:b3:34:25:77:4d:
                    20:66:c9:79:73:f3:91:7a:df:c4:72:f5:6f:71:fa:
                    c1:c3:72:5d:f7:85:50:ed:6d:a0:a9:7d:18:a6:b7:
                    2f:77:76:df:21:f7:b5:50:56:4a:e6:ed:44:8c:13:
                    56:99:59:23:e1:fe:69:6d:69:52:12:7c:72:14:55:
                    7b:0a:7a:ac:51:ed:ec:94:4b:0d:1f:85:1b:50:e8:
                    3a:1e:12:c8:fd:67:c7:60:d2:f6:ae:10:51:9c:05:
                    37:4a:f2:b2:3c:7b:bf:48:1b:50:e7:86:68:56:31:
                    3c:c3:18:ea:22:a9:75:51:10:23:4c:33:13:42:cd:
                    d6:a0:86:f1:a3:55:99:c2:e1:b9:4e:02:e2:09:19:
                    79:44:84:15:b8:08:e3:5d:f7:e7:e8:2c:d8:a7:19:
                    5e:43
                Exponent: 65537 (0x10001)
        X509v3 extensions:
            X509v3 Key Usage: critical
                Certificate Sign, CRL Sign
            X509v3 Basic Constraints: critical
                CA:TRUE, pathlen:0
            X509v3 Subject Key Identifier: 
                16:EE:B9:DB:48:F5:97:29:C1:8F:FE:AD:98:15:FA:75:9A:A0:21:1D
            X509v3 Authority Key Identifier: 
                keyid:56:3A:2B:79:30:FB:58:2E:FE:EF:3B:2A:70:2C:E7:2E:E0:70:F9:3B

    Signature Algorithm: sha1WithRSAEncryption
         5f:b1:55:63:47:90:39:f3:f0:b7:ec:cb:f6:dd:75:76:e5:ea:
         d6:73:76:9c:f8:83:b0:c3:bd:0e:b1:86:70:e5:8a:7a:d3:69:
         ee:99:65:95:a6:38:6d:6e:e3:81:1d:04:63:2f:3b:53:72:56:
         42:fa:6b:b5:a5:c6:10:49:88:f2:c3:7b:d2:23:04:46:29:05:
         72:9b:0e:eb:94:a5:15:86:c8:49:aa:eb:59:be:4d:af:0f:52:
         a6:ad:b0:7c:f7:6a:3a:98:47:8d:32:2f:48:a6:21:d6:ed:47:
         50:f3:2f:e6:f9:11:a4:7a:4f:bd:2a:61:19:bc:3f:20:75:29:
         68:91:a7:6e:61:a2:f0:bd:06:da:4f:77:b7:9b:cc:3f:58:6c:
         2d:b1:f9:ae:72:1e:87:cc:b6:25:48:9e:ca:19:50:fb:a9:ae:
         79:14:2a:07:80:be:91:15:2b:47:c8:a3:57:7e:f4:eb:4a:49:
         7f:fc:a9:c3:69:da:49:a1:50:23:67:ca:07:98:78:9b:fe:1e:
         06:b7:47:e1:ea:af:1f:79:68:3f:3b:ed:5a:71:45:41:6c:b0:
         3e:4e:7b:14:94:9d:ed:e7:5a:84:bf:ee:12:da:c3:15:84:3c:
         3b:13:9b:c4:74:ba:74:72:e3:d7:06:6f:10:5d:0e:ed:76:a1:
         27:82:54:ac
-----BEGIN CERTIFICATE-----
MIIDzzCCAregAwIBAgIBAjANBgkqhkiG9w0BAQUFADB0MRMwEQYKCZImiZPyLGQB
GRYDb3JnMRYwFAYKCZImiZPyLGQBGRYGc2ltcGxlMRMwEQYDVQQKDApTaW1wbGUg
SW5jMRcwFQYDVQQLDA5TaW1wbGUgUm9vdCBDQTEXMBUGA1UEAwwOU2ltcGxlIFJv
b3QgQ0EwHhcNMTgwNTA4MDI1OTAwWhcNMjgwNTA3MDI1OTAwWjB6MRMwEQYKCZIm
iZPyLGQBGRYDb3JnMRYwFAYKCZImiZPyLGQBGRYGc2ltcGxlMRMwEQYDVQQKDApT
aW1wbGUgSW5jMRowGAYDVQQLDBFTaW1wbGUgU2lnbmluZyBDQTEaMBgGA1UEAwwR
U2ltcGxlIFNpZ25pbmcgQ0EwggEiMA0GCSqGSIb3DQEBAQUAA4IBDwAwggEKAoIB
AQDOqFV5I0R3g518i1TOH+v8JXOhkYsOOvN7NbC1idrDIcaJE3lsas2QUNYiwxEu
7tFe98fy734g0irt8fKGOAPpktAcPGzaX8PYTUIjuc/zEncH7T9IkWcMNf/Ea/Ai
br6K9z+zNCV3TSBmyXlz85F638Ry9W9x+sHDcl33hVDtbaCpfRimty93dt8h97VQ
Vkrm7USME1aZWSPh/mltaVISfHIUVXsKeqxR7eyUSw0fhRtQ6DoeEsj9Z8dg0vau
EFGcBTdK8rI8e79IG1DnhmhWMTzDGOoiqXVRECNMMxNCzdaghvGjVZnC4blOAuIJ
GXlEhBW4CONd9+foLNinGV5DAgMBAAGjZjBkMA4GA1UdDwEB/wQEAwIBBjASBgNV
HRMBAf8ECDAGAQH/AgEAMB0GA1UdDgQWBBQW7rnbSPWXKcGP/q2YFfp1mqAhHTAf
BgNVHSMEGDAWgBRWOit5MPtYLv7vOypwLOcu4HD5OzANBgkqhkiG9w0BAQUFAAOC
AQEAX7FVY0eQOfPwt+zL9t11duXq1nN2nPiDsMO9DrGGcOWKetNp7plllaY4bW7j
gR0EYy87U3JWQvprtaXGEEmI8sN70iMERikFcpsO65SlFYbISarrWb5Nrw9Spq2w
fPdqOphHjTIvSKYh1u1HUPMv5vkRpHpPvSphGbw/IHUpaJGnbmGi8L0G2k93t5vM
P1hsLbH5rnIeh8y2JUieyhlQ+6mueRQqB4C+kRUrR8ijV37060pJf/ypw2naSaFQ
I2fKB5h4m/4eBrdH4eqvH3loPzvtWnFFQWywPk57FJSd7edahL/uEtrDFYQ8OxOb
xHS6dHLj1wZvEF0O7XahJ4JUrA==
-----END CERTIFICATE-----
Certificate:
    Data:
        Version: 3 (0x2)
        Serial Number: 1 (0x1)
    Signature Algorithm: sha1WithRSAEncryption
        Issuer: DC=org, DC=simple, O=Simple Inc, OU=Simple Root CA, CN=Simple Root CA
        Validity
            Not Before: May  8 02:34:01 2018 GMT
            Not After : May  7 02:34:01 2028 GMT
        Subject: DC=org, DC=simple, O=Simple Inc, OU=Simple Root CA, CN=Simple Root CA
        Subject Public Key Info:
            Public Key Algorithm: rsaEncryption
                Public-Key: (2048 bit)
                Modulus:
                    00:ca:43:f3:ff:18:20:e4:7e:65:c1:b8:0e:c3:0c:
                    e9:a5:94:ed:a5:1c:af:a2:72:af:28:c0:50:a1:40:
                    d9:0d:c9:9d:1c:a0:f7:1a:3a:58:e3:7a:a5:ca:6c:
                    49:2f:dc:60:0c:ef:37:f5:0b:50:45:5f:f6:6b:f7:
                    25:71:e7:45:b0:96:aa:eb:b1:e2:c0:dd:71:1d:06:
                    cb:37:79:bf:4e:89:d3:1e:c9:65:ae:4c:5a:a6:a9:
                    0a:df:59:99:fa:15:6d:6d:c8:ea:41:72:ea:ab:96:
                    51:76:a1:fc:a5:d0:e3:8d:0a:6d:cf:73:d0:ad:be:
                    61:f5:92:c3:95:1e:f2:95:8e:fe:11:29:dc:f9:19:
                    14:a3:c2:9f:15:c5:07:98:9e:52:cd:77:01:94:8b:
                    11:8d:d5:65:88:0f:44:1c:14:d7:58:1c:4d:af:24:
                    e3:ff:cd:3f:44:14:b0:27:c8:f0:cf:39:3d:3d:2c:
                    48:7e:56:ec:83:64:f2:8f:30:43:ce:7a:f3:cf:18:
                    ef:44:03:ca:91:65:41:95:29:fa:ad:fe:fe:13:85:
                    40:4a:0f:8d:81:35:cb:77:07:1f:60:f4:b2:ca:86:
                    7a:7d:46:e0:24:59:4f:a7:97:10:98:9e:1a:a1:74:
                    23:70:1e:35:e1:94:97:04:6a:84:5d:65:05:3f:2b:
                    78:83
                Exponent: 65537 (0x10001)
        X509v3 extensions:
            X509v3 Key Usage: critical
                Certificate Sign, CRL Sign
            X509v3 Basic Constraints: critical
                CA:TRUE
            X509v3 Subject Key Identifier: 
                56:3A:2B:79:30:FB:58:2E:FE:EF:3B:2A:70:2C:E7:2E:E0:70:F9:3B
            X509v3 Authority Key Identifier: 
                keyid:56:3A:2B:79:30:FB:58:2E:FE:EF:3B:2A:70:2C:E7:2E:E0:70:F9:3B

    Signature Algorithm: sha1WithRSAEncryption
         98:01:de:76:7d:f2:eb:3b:3b:4d:50:96:dc:42:42:66:c7:01:
         4c:3f:e0:31:6c:c9:e3:77:b3:cd:14:6b:85:a2:c4:15:64:0e:
         3e:e0:36:ff:51:00:5d:71:1c:58:72:06:ce:f4:66:7d:84:c1:
         5a:ab:22:83:26:d0:26:c8:1e:9d:f4:e8:b9:c0:84:f8:3e:4c:
         ef:6f:59:e5:0c:52:69:7c:1c:e1:e0:47:47:81:32:c2:ae:a1:
         e9:88:a1:bc:a9:0c:db:cd:4d:0b:0f:b9:64:c1:2f:c3:2e:74:
         c6:80:20:8f:9c:97:85:d1:1e:1a:48:3b:47:95:68:eb:32:fd:
         61:96:21:14:f6:36:ba:6c:b1:3f:56:0f:cf:3f:15:5d:dd:a3:
         ab:e4:85:f1:0d:7b:80:57:da:2c:65:49:35:2f:da:01:97:27:
         5c:52:69:58:51:14:ef:cb:4d:23:36:c7:2c:4b:06:21:95:5b:
         b0:d6:9d:25:f9:c7:c2:73:58:7d:4a:41:e3:a5:1f:b6:b6:c9:
         dc:bb:e3:b1:49:28:6e:0e:24:96:e7:0d:b7:29:61:50:cb:c0:
         e5:3c:21:95:06:5c:8c:17:72:89:62:3c:47:cc:73:b1:27:e3:
         ba:bc:7a:fb:96:70:9b:59:71:9e:73:fb:ae:02:f9:2d:5b:7a:
         77:35:20:77
-----BEGIN CERTIFICATE-----
MIIDxjCCAq6gAwIBAgIBATANBgkqhkiG9w0BAQUFADB0MRMwEQYKCZImiZPyLGQB
GRYDb3JnMRYwFAYKCZImiZPyLGQBGRYGc2ltcGxlMRMwEQYDVQQKDApTaW1wbGUg
SW5jMRcwFQYDVQQLDA5TaW1wbGUgUm9vdCBDQTEXMBUGA1UEAwwOU2ltcGxlIFJv
b3QgQ0EwHhcNMTgwNTA4MDIzNDAxWhcNMjgwNTA3MDIzNDAxWjB0MRMwEQYKCZIm
iZPyLGQBGRYDb3JnMRYwFAYKCZImiZPyLGQBGRYGc2ltcGxlMRMwEQYDVQQKDApT
aW1wbGUgSW5jMRcwFQYDVQQLDA5TaW1wbGUgUm9vdCBDQTEXMBUGA1UEAwwOU2lt
cGxlIFJvb3QgQ0EwggEiMA0GCSqGSIb3DQEBAQUAA4IBDwAwggEKAoIBAQDKQ/P/
GCDkfmXBuA7DDOmllO2lHK+icq8owFChQNkNyZ0coPcaOljjeqXKbEkv3GAM7zf1
C1BFX/Zr9yVx50WwlqrrseLA3XEdBss3eb9OidMeyWWuTFqmqQrfWZn6FW1tyOpB
cuqrllF2ofyl0OONCm3Pc9CtvmH1ksOVHvKVjv4RKdz5GRSjwp8VxQeYnlLNdwGU
ixGN1WWID0QcFNdYHE2vJOP/zT9EFLAnyPDPOT09LEh+VuyDZPKPMEPOevPPGO9E
A8qRZUGVKfqt/v4ThUBKD42BNct3Bx9g9LLKhnp9RuAkWU+nlxCYnhqhdCNwHjXh
lJcEaoRdZQU/K3iDAgMBAAGjYzBhMA4GA1UdDwEB/wQEAwIBBjAPBgNVHRMBAf8E
BTADAQH/MB0GA1UdDgQWBBRWOit5MPtYLv7vOypwLOcu4HD5OzAfBgNVHSMEGDAW
gBRWOit5MPtYLv7vOypwLOcu4HD5OzANBgkqhkiG9w0BAQUFAAOCAQEAmAHedn3y
6zs7TVCW3EJCZscBTD/gMWzJ43ezzRRrhaLEFWQOPuA2/1EAXXEcWHIGzvRmfYTB
WqsigybQJsgenfToucCE+D5M729Z5QxSaXwc4eBHR4Eywq6h6YihvKkM281NCw+5
ZMEvwy50xoAgj5yXhdEeGkg7R5Vo6zL9YZYhFPY2umyxP1YPzz8VXd2jq+SF8Q17
gFfaLGVJNS/aAZcnXFJpWFEU78tNIzbHLEsGIZVbsNadJfnHwnNYfUpB46UftrbJ
3LvjsUkobg4klucNtylhUMvA5TwhlQZcjBdyiWI8R8xzsSfjurx6+5Zwm1lxnnP7
rgL5LVt6dzUgdw==
-----END CERTIFICATE-----
