Certificate:
    Data:
        Version: 3 (0x2)
        Serial Number: 2 (0x2)
    Signature Algorithm: sha1WithRSAEncryption
        Issuer: DC=org, DC=simple, O=Simple Inc, OU=Simple Root CA, CN=Simple Root CA
        Validity
            Not Before: May  8 02:59:00 2018 GMT
            Not After : May  7 02:59:00 2028 GMT
        Subject: DC=org, DC=simple, O=Simple Inc, OU=Simple Signing CA, CN=Simple Signing CA
        Subject Public Key Info:
            Public Key Algorithm: rsaEncryption
                Public-Key: (2048 bit)
                Modulus:
                    00:ce:a8:55:79:23:44:77:83:9d:7c:8b:54:ce:1f:
                    eb:fc:25:73:a1:91:8b:0e:3a:f3:7b:35:b0:b5:89:
                    da:c3:21:c6:89:13:79:6c:6a:cd:90:50:d6:22:c3:
                    11:2e:ee:d1:5e:f7:c7:f2:ef:7e:20:d2:2a:ed:f1:
                    f2:86:38:03:e9:92:d0:1c:3c:6c:da:5f:c3:d8:4d:
                    42:23:b9:cf:f3:12:77:07:ed:3f:48:91:67:0c:35:
                    ff:c4:6b:f0:22:6e:be:8a:f7:3f:b3:34:25:77:4d:
                    20:66:c9:79:73:f3:91:7a:df:c4:72:f5:6f:71:fa:
                    c1:c3:72:5d:f7:85:50:ed:6d:a0:a9:7d:18:a6:b7:
                    2f:77:76:df:21:f7:b5:50:56:4a:e6:ed:44:8c:13:
                    56:99:59:23:e1:fe:69:6d:69:52:12:7c:72:14:55:
                    7b:0a:7a:ac:51:ed:ec:94:4b:0d:1f:85:1b:50:e8:
                    3a:1e:12:c8:fd:67:c7:60:d2:f6:ae:10:51:9c:05:
                    37:4a:f2:b2:3c:7b:bf:48:1b:50:e7:86:68:56:31:
                    3c:c3:18:ea:22:a9:75:51:10:23:4c:33:13:42:cd:
                    d6:a0:86:f1:a3:55:99:c2:e1:b9:4e:02:e2:09:19:
                    79:44:84:15:b8:08:e3:5d:f7:e7:e8:2c:d8:a7:19:
                    5e:43
                Exponent: 65537 (0x10001)
        X509v3 extensions:
            X509v3 Key Usage: critical
                Certificate Sign, CRL Sign
            X509v3 Basic Constraints: critical
                CA:TRUE, pathlen:0
            X509v3 Subject Key Identifier: 
                16:EE:B9:DB:48:F5:97:29:C1:8F:FE:AD:98:15:FA:75:9A:A0:21:1D
            X509v3 Authority Key Identifier: 
                keyid:56:3A:2B:79:30:FB:58:2E:FE:EF:3B:2A:70:2C:E7:2E:E0:70:F9:3B

    Signature Algorithm: sha1WithRSAEncryption
         5f:b1:55:63:47:90:39:f3:f0:b7:ec:cb:f6:dd:75:76:e5:ea:
         d6:73:76:9c:f8:83:b0:c3:bd:0e:b1:86:70:e5:8a:7a:d3:69:
         ee:99:65:95:a6:38:6d:6e:e3:81:1d:04:63:2f:3b:53:72:56:
         42:fa:6b:b5:a5:c6:10:49:88:f2:c3:7b:d2:23:04:46:29:05:
         72:9b:0e:eb:94:a5:15:86:c8:49:aa:eb:59:be:4d:af:0f:52:
         a6:ad:b0:7c:f7:6a:3a:98:47:8d:32:2f:48:a6:21:d6:ed:47:
         50:f3:2f:e6:f9:11:a4:7a:4f:bd:2a:61:19:bc:3f:20:75:29:
         68:91:a7:6e:61:a2:f0:bd:06:da:4f:77:b7:9b:cc:3f:58:6c:
         2d:b1:f9:ae:72:1e:87:cc:b6:25:48:9e:ca:19:50:fb:a9:ae:
         79:14:2a:07:80:be:91:15:2b:47:c8:a3:57:7e:f4:eb:4a:49:
         7f:fc:a9:c3:69:da:49:a1:50:23:67:ca:07:98:78:9b:fe:1e:
         06:b7:47:e1:ea:af:1f:79:68:3f:3b:ed:5a:71:45:41:6c:b0:
         3e:4e:7b:14:94:9d:ed:e7:5a:84:bf:ee:12:da:c3:15:84:3c:
         3b:13:9b:c4:74:ba:74:72:e3:d7:06:6f:10:5d:0e:ed:76:a1:
         27:82:54:ac
-----BEGIN CERTIFICATE-----
MIIDzzCCAregAwIBAgIBAjANBgkqhkiG9w0BAQUFADB0MRMwEQYKCZImiZPyLGQB
GRYDb3JnMRYwFAYKCZImiZPyLGQBGRYGc2ltcGxlMRMwEQYDVQQKDApTaW1wbGUg
SW5jMRcwFQYDVQQLDA5TaW1wbGUgUm9vdCBDQTEXMBUGA1UEAwwOU2ltcGxlIFJv
b3QgQ0EwHhcNMTgwNTA4MDI1OTAwWhcNMjgwNTA3MDI1OTAwWjB6MRMwEQYKCZIm
iZPyLGQBGRYDb3JnMRYwFAYKCZImiZPyLGQBGRYGc2ltcGxlMRMwEQYDVQQKDApT
aW1wbGUgSW5jMRowGAYDVQQLDBFTaW1wbGUgU2lnbmluZyBDQTEaMBgGA1UEAwwR
U2ltcGxlIFNpZ25pbmcgQ0EwggEiMA0GCSqGSIb3DQEBAQUAA4IBDwAwggEKAoIB
AQDOqFV5I0R3g518i1TOH+v8JXOhkYsOOvN7NbC1idrDIcaJE3lsas2QUNYiwxEu
7tFe98fy734g0irt8fKGOAPpktAcPGzaX8PYTUIjuc/zEncH7T9IkWcMNf/Ea/Ai
br6K9z+zNCV3TSBmyXlz85F638Ry9W9x+sHDcl33hVDtbaCpfRimty93dt8h97VQ
Vkrm7USME1aZWSPh/mltaVISfHIUVXsKeqxR7eyUSw0fhRtQ6DoeEsj9Z8dg0vau
EFGcBTdK8rI8e79IG1DnhmhWMTzDGOoiqXVRECNMMxNCzdaghvGjVZnC4blOAuIJ
GXlEhBW4CONd9+foLNinGV5DAgMBAAGjZjBkMA4GA1UdDwEB/wQEAwIBBjASBgNV
HRMBAf8ECDAGAQH/AgEAMB0GA1UdDgQWBBQW7rnbSPWXKcGP/q2YFfp1mqAhHTAf
BgNVHSMEGDAWgBRWOit5MPtYLv7vOypwLOcu4HD5OzANBgkqhkiG9w0BAQUFAAOC
AQEAX7FVY0eQOfPwt+zL9t11duXq1nN2nPiDsMO9DrGGcOWKetNp7plllaY4bW7j
gR0EYy87U3JWQvprtaXGEEmI8sN70iMERikFcpsO65SlFYbISarrWb5Nrw9Spq2w
fPdqOphHjTIvSKYh1u1HUPMv5vkRpHpPvSphGbw/IHUpaJGnbmGi8L0G2k93t5vM
P1hsLbH5rnIeh8y2JUieyhlQ+6mueRQqB4C+kRUrR8ijV37060pJf/ypw2naSaFQ
I2fKB5h4m/4eBrdH4eqvH3loPzvtWnFFQWywPk57FJSd7edahL/uEtrDFYQ8OxOb
xHS6dHLj1wZvEF0O7XahJ4JUrA==
-----END CERTIFICATE-----
